target datalayout = "e-m:e-p270:32:32-p271:32:32-p272:64:64-i64:64-i128:128-f80:128-n8:16:32:64-S128"
target triple = "x86_64-pc-linux-gnu"

%struct.ggml_tensor = type { i32, ptr, [4 x i64], [4 x i64], i32, [16 x i32], i32, [10 x ptr], ptr, i64, ptr, [64 x i8], ptr, [8 x i8] }

@.str.13 = private unnamed_addr constant [23 x i8] c"GGML_ASSERT(%s) failed\00", align 1
@.str.463 = private unnamed_addr constant [118 x i8] c"generated/home/dtcxzyw/WorkSpace/Projects/compilers/llvm-opt-benchmark/bench/llama.cpp/llama.cpp/ggml/src/ggml-impl.h\00", align 1
@.str.464 = private unnamed_addr constant [15 x i8] c"tensor != NULL\00", align 1

; Function Attrs: nounwind uwtable
define internal void @ggml_set_op_params(ptr noundef %0, ptr noundef %1, i64 noundef %2) #5 {
  %4 = alloca ptr, align 8
  %5 = alloca ptr, align 8
  %6 = alloca i64, align 8
  store ptr %0, ptr %4, align 8, !tbaa !54
  store ptr %1, ptr %5, align 8, !tbaa !18
  store i64 %2, ptr %6, align 8, !tbaa !19
  %7 = load ptr, ptr %4, align 8, !tbaa !54
  %8 = icmp ne ptr %7, null
  br i1 %8, label %10, label %9

9:                                                ; preds = %3
  call void (ptr, i32, ptr, ...) @ggml_abort(ptr noundef @.str.463, i32 noundef 112, ptr noundef @.str.13, ptr noundef @.str.464) #18
  unreachable

10:                                               ; preds = %3
  %11 = load ptr, ptr %4, align 8, !tbaa !54
  %12 = getelementptr inbounds nuw %struct.ggml_tensor, ptr %11, i32 0, i32 5
  %13 = getelementptr inbounds [16 x i32], ptr %12, i64 0, i64 0
  %14 = load ptr, ptr %5, align 8, !tbaa !18
  %15 = load i64, ptr %6, align 8, !tbaa !19
  call void @llvm.memcpy.p0.p0.i64(ptr align 4 %13, ptr align 1 %14, i64 %15, i1 false)
  ret void
}

; Function Attrs: nounwind uwtable
define ptr @ggml_new_tensor(ptr noundef %0, i32 noundef %1, i32 noundef %2, ptr noundef %3) #5 {
  %5 = alloca ptr, align 8
  %6 = alloca i32, align 4
  %7 = alloca i32, align 4
  %8 = alloca ptr, align 8
  store ptr %0, ptr %5, align 8, !tbaa !48
  store i32 %1, ptr %6, align 4, !tbaa !8
  store i32 %2, ptr %7, align 4, !tbaa !8
  store ptr %3, ptr %8, align 8, !tbaa !88
  %9 = load ptr, ptr %5, align 8, !tbaa !48
  %10 = load i32, ptr %6, align 4, !tbaa !8
  %11 = load i32, ptr %7, align 4, !tbaa !8
  %12 = load ptr, ptr %8, align 8, !tbaa !88
  %13 = call ptr @ggml_new_tensor_impl(ptr noundef %9, i32 noundef %10, i32 noundef %11, ptr noundef %12, ptr noundef null, i64 noundef 0)
  ret ptr %13
}

; Function Attrs: nounwind uwtable
define internal i64 @ggml_calc_pool_output_size(i64 noundef %0, i32 noundef %1, i32 noundef %2, float noundef %3) #5 {
  %5 = alloca i64, align 8
  %6 = alloca i32, align 4
  %7 = alloca i32, align 4
  %8 = alloca float, align 4
  store i64 %0, ptr %5, align 8, !tbaa !19
  store i32 %1, ptr %6, align 4, !tbaa !8
  store i32 %2, ptr %7, align 4, !tbaa !8
  store float %3, ptr %8, align 4, !tbaa !23
  %9 = load i64, ptr %5, align 8, !tbaa !19
  %10 = sitofp i64 %9 to float
  %11 = load float, ptr %8, align 4, !tbaa !23
  %12 = call float @llvm.fmuladd.f32(float 2.000000e+00, float %11, float %10)
  %13 = load i32, ptr %6, align 4, !tbaa !8
  %14 = sitofp i32 %13 to float
  %15 = fsub float %12, %14
  %16 = load i32, ptr %7, align 4, !tbaa !8
  %17 = sitofp i32 %16 to float
  %18 = fdiv float %15, %17
  %19 = fadd float %18, 1.000000e+00
  %20 = fptosi float %19 to i64
  ret i64 %20
}

; Function Attrs: nounwind uwtable
define ptr @ggml_pool_1d(ptr noundef %0, ptr noundef %1, i32 noundef %2, i32 noundef %3, i32 noundef %4, i32 noundef %5) #5 {
  %7 = alloca ptr, align 8
  %8 = alloca ptr, align 8
  %9 = alloca i32, align 4
  %10 = alloca i32, align 4
  %11 = alloca i32, align 4
  %12 = alloca i32, align 4
  %13 = alloca [4 x i64], align 16
  %14 = alloca ptr, align 8
  %15 = alloca [4 x i32], align 16
  store ptr %0, ptr %7, align 8, !tbaa !48
  store ptr %1, ptr %8, align 8, !tbaa !54
  store i32 %2, ptr %9, align 4, !tbaa !8
  store i32 %3, ptr %10, align 4, !tbaa !8
  store i32 %4, ptr %11, align 4, !tbaa !8
  store i32 %5, ptr %12, align 4, !tbaa !8
  call void @llvm.lifetime.start.p0(i64 32, ptr %13) #14
  %16 = load ptr, ptr %8, align 8, !tbaa !54
  %17 = getelementptr inbounds nuw %struct.ggml_tensor, ptr %16, i32 0, i32 2
  %18 = getelementptr inbounds [4 x i64], ptr %17, i64 0, i64 0
  %19 = load i64, ptr %18, align 8, !tbaa !19
  %20 = load i32, ptr %10, align 4, !tbaa !8
  %21 = load i32, ptr %11, align 4, !tbaa !8
  %22 = load i32, ptr %12, align 4, !tbaa !8
  %23 = sitofp i32 %22 to float
  %24 = call i64 @ggml_calc_pool_output_size(i64 noundef %19, i32 noundef %20, i32 noundef %21, float noundef %23)
  store i64 %24, ptr %13, align 8, !tbaa !19
  %25 = getelementptr inbounds i64, ptr %13, i64 1
  %26 = load ptr, ptr %8, align 8, !tbaa !54
  %27 = getelementptr inbounds nuw %struct.ggml_tensor, ptr %26, i32 0, i32 2
  %28 = getelementptr inbounds [4 x i64], ptr %27, i64 0, i64 1
  %29 = load i64, ptr %28, align 8, !tbaa !19
  store i64 %29, ptr %25, align 8, !tbaa !19
  %30 = getelementptr inbounds i64, ptr %13, i64 2
  %31 = load ptr, ptr %8, align 8, !tbaa !54
  %32 = getelementptr inbounds nuw %struct.ggml_tensor, ptr %31, i32 0, i32 2
  %33 = getelementptr inbounds [4 x i64], ptr %32, i64 0, i64 2
  %34 = load i64, ptr %33, align 8, !tbaa !19
  store i64 %34, ptr %30, align 8, !tbaa !19
  %35 = getelementptr inbounds i64, ptr %13, i64 3
  %36 = load ptr, ptr %8, align 8, !tbaa !54
  %37 = getelementptr inbounds nuw %struct.ggml_tensor, ptr %36, i32 0, i32 2
  %38 = getelementptr inbounds [4 x i64], ptr %37, i64 0, i64 3
  %39 = load i64, ptr %38, align 8, !tbaa !19
  store i64 %39, ptr %35, align 8, !tbaa !19
  call void @llvm.lifetime.start.p0(i64 8, ptr %14) #14
  %40 = load ptr, ptr %7, align 8, !tbaa !48
  %41 = getelementptr inbounds [4 x i64], ptr %13, i64 0, i64 0
  %42 = call ptr @ggml_new_tensor(ptr noundef %40, i32 noundef 0, i32 noundef 4, ptr noundef %41)
  store ptr %42, ptr %14, align 8, !tbaa !54
  call void @llvm.lifetime.start.p0(i64 16, ptr %15) #14
  %43 = load i32, ptr %9, align 4, !tbaa !8
  store i32 %43, ptr %15, align 4, !tbaa !8
  %44 = getelementptr inbounds i32, ptr %15, i64 1
  %45 = load i32, ptr %10, align 4, !tbaa !8
  store i32 %45, ptr %44, align 4, !tbaa !8
  %46 = getelementptr inbounds i32, ptr %15, i64 2
  %47 = load i32, ptr %11, align 4, !tbaa !8
  store i32 %47, ptr %46, align 4, !tbaa !8
  %48 = getelementptr inbounds i32, ptr %15, i64 3
  %49 = load i32, ptr %12, align 4, !tbaa !8
  store i32 %49, ptr %48, align 4, !tbaa !8
  %50 = load ptr, ptr %14, align 8, !tbaa !54
  %51 = getelementptr inbounds [4 x i32], ptr %15, i64 0, i64 0
  call void @ggml_set_op_params(ptr noundef %50, ptr noundef %51, i64 noundef 16)
  %52 = load ptr, ptr %14, align 8, !tbaa !54
  %53 = getelementptr inbounds nuw %struct.ggml_tensor, ptr %52, i32 0, i32 4
  store i32 51, ptr %53, align 8, !tbaa !68
  %54 = load ptr, ptr %8, align 8, !tbaa !54
  %55 = load ptr, ptr %14, align 8, !tbaa !54
  %56 = getelementptr inbounds nuw %struct.ggml_tensor, ptr %55, i32 0, i32 7
  %57 = getelementptr inbounds [10 x ptr], ptr %56, i64 0, i64 0
  store ptr %54, ptr %57, align 8, !tbaa !54
  %58 = load ptr, ptr %14, align 8, !tbaa !54
  call void @llvm.lifetime.end.p0(i64 16, ptr %15) #14
  call void @llvm.lifetime.end.p0(i64 8, ptr %14) #14
  call void @llvm.lifetime.end.p0(i64 32, ptr %13) #14
  ret ptr %58
}