; Function Attrs: nounwind uwtable
define noundef ptr @ggml_pool_1d(ptr noundef captures(none) %0, ptr noundef %1, i32 noundef %2, i32 noundef %3, i32 noundef %4, i32 noundef %5) local_unnamed_addr #4 {
  %7 = alloca [4 x i64], align 16
  call void @llvm.lifetime.start.p0(i64 32, ptr nonnull %7) #42
  %8 = getelementptr inbounds nuw i8, ptr %1, i64 16
  %9 = load i64, ptr %8, align 8, !tbaa !39
  %10 = sitofp i32 %5 to float
  %11 = sitofp i64 %9 to float
  %12 = tail call float @llvm.fmuladd.f32(float %10, float 2.000000e+00, float %11)
  %13 = sitofp i32 %3 to float
  %14 = fsub float %12, %13
  %15 = sitofp i32 %4 to float
  %16 = fdiv float %14, %15
  %17 = fadd float %16, 1.000000e+00
  %18 = fptosi float %17 to i64
  store i64 %18, ptr %7, align 16, !tbaa !39
  %19 = getelementptr inbounds nuw i8, ptr %7, i64 8
  %20 = getelementptr inbounds nuw i8, ptr %1, i64 24
  %21 = load i64, ptr %20, align 8, !tbaa !39
  store i64 %21, ptr %19, align 8, !tbaa !39
  %22 = getelementptr inbounds nuw i8, ptr %7, i64 16
  %23 = getelementptr inbounds nuw i8, ptr %1, i64 32
  %24 = load i64, ptr %23, align 8, !tbaa !39
  store i64 %24, ptr %22, align 16, !tbaa !39
  %25 = getelementptr inbounds nuw i8, ptr %7, i64 24
  %26 = getelementptr inbounds nuw i8, ptr %1, i64 40
  %27 = load i64, ptr %26, align 8, !tbaa !39
  store i64 %27, ptr %25, align 8, !tbaa !39
  %28 = call fastcc noundef ptr @ggml_new_tensor_impl(ptr noundef %0, i32 noundef 0, i32 noundef 4, ptr noundef nonnull readonly %7, ptr noundef null, i64 noundef 0)
  %.not.i = icmp eq ptr %28, null
  br i1 %.not.i, label %29, label %ggml_set_op_params.exit

29:                                               ; preds = %6
  tail call void (ptr, i32, ptr, ...) @ggml_abort(ptr noundef nonnull @.str.463, i32 noundef 112, ptr noundef nonnull @.str.13, ptr noundef nonnull @.str.464) #47
  unreachable

ggml_set_op_params.exit:                          ; preds = %6
  %30 = getelementptr inbounds nuw i8, ptr %28, i64 84
  store i32 %2, ptr %30, align 4
  %.sroa.4.0..sroa_idx = getelementptr inbounds nuw i8, ptr %28, i64 88
  store i32 %3, ptr %.sroa.4.0..sroa_idx, align 4
  %.sroa.5.0..sroa_idx = getelementptr inbounds nuw i8, ptr %28, i64 92
  store i32 %4, ptr %.sroa.5.0..sroa_idx, align 4
  %.sroa.6.0..sroa_idx = getelementptr inbounds nuw i8, ptr %28, i64 96
  store i32 %5, ptr %.sroa.6.0..sroa_idx, align 4
  %31 = getelementptr inbounds nuw i8, ptr %28, i64 80
  store i32 51, ptr %31, align 8, !tbaa !55
  %32 = getelementptr inbounds nuw i8, ptr %28, i64 152
  store ptr %1, ptr %32, align 8, !tbaa !81
  call void @llvm.lifetime.end.p0(i64 32, ptr nonnull %7) #42
  ret ptr %28
}